(lp0
S'\\begin{onlyenv}'
p1
aS'\\maketitle'
p2
aS'\\end{onlyenv}'
p3
aS'\\frame{\\titlepage}'
p4
aS'___GTEXFIXCOMMENT0___'
p5
aS'___GTEXFIXCOMMENT1___'
p6
aS'\\begin{frame}'
p7
aS'\\frametitle{Goals of this introduction}'
p8
aS'\\begin{itemize}'
p9
aS'\\item'
p10
aS'\\item'
p11
aS'\\item'
p12
aS'\\item'
p13
aS'\\item'
p14
aS'\\item'
p15
aS'\\item'
p16
aS'\\item'
p17
aS'\\end{itemize}'
p18
aS'\\end{frame}'
p19
aS'\\section'
p20
aS'\\begin{frame}'
p21
aS'\\frametitle'
p22
aS'\\inline'
p23
aS'\\inline'
p24
aS'\\inline'
p25
aS'\\begin{lstlisting}'
p26
aS'\\end{lstlisting}'
p27
aS'\\lstinline'
p28
aS'\\lstinline'
p29
aS'\\lstinline'
p30
aS'\\lstinline'
p31
aS'\\begin{lstlisting}'
p32
aS'\\end{lstlisting}'
p33
aS'\\begin{lstlisting}'
p34
aS'\\end{lstlisting}'
p35
aS'\\begin{lstlisting}'
p36
aS'\\end{lstlisting}'
p37
aS'\\end{frame}'
p38
aS'\\begin{frame}'
p39
aS'\\frametitle'
p40
aS'\\inline'
p41
aS'\\begin{lstlisting}'
p42
aS'\\end{lstlisting}'
p43
aS'\\inline'
p44
aS'\\end{frame}'
p45
aS'\\section'
p46
aS'\\begin{frame}'
p47
aS'\\frametitle'
p48
aS'\\begin{itemize}'
p49
aS'\\item'
p50
aS'\\item'
p51
aS'\\item'
p52
aS'\\end{itemize}'
p53
aS'\\dots'
p54
aS'\\end{frame}'
p55
aS'\\begin{frame}'
p56
aS'\\frametitle{Object-oriented Programming in C++}'
p57
aS'\\begin{itemize}'
p58
aS'\\item'
p59
aS'\\item'
p60
aS'\\dots'
p61
aS'\\item'
p62
aS'\\end{itemize}'
p63
aS'\\'
p64
ag64
ag64
aS'$(1,3)$'
p65
aS'$(5,0)$'
p66
ag64
ag64
aS'\\pause'
p67
aS'\\begin{block}{$\\Rightarrow$ C++ language concept}'
p68
aS'\\inline'
p69
aS'\\dots'
p70
aS'\\end{block}'
p71
aS'\\end{frame}'
p72
aS'\\begin{frame}'
p73
aS'\\frametitle{Classes}'
p74
aS'\\begin{lstlisting}'
p75
aS'\\end{lstlisting}'
p76
aS'\\end{frame}'
p77
aS'\\begin{frame}'
p78
aS'\\frametitle{Using C++ Objects}'
p79
aS'\\begin{itemize}'
p80
aS'\\item'
p81
aS'\\inline'
p82
aS'\\inline'
p83
aS'\\inline'
p84
aS'\\dots'
p85
aS'\\begin{lstlisting}'
p86
aS'\\end{lstlisting}'
p87
aS'\\item'
p88
aS'\\emph{object}'
p89
aS'\\begin{lstlisting}'
p90
aS'\\end{lstlisting}'
p91
aS'\\item'
p92
aS'\\inline'
p93
aS'\\begin{lstlisting}'
p94
aS'\\end{lstlisting}'
p95
aS'\\end{itemize}'
p96
aS'\\end{frame}'
p97
aS'\\begin{frame}'
p98
aS'\\frametitle{Encapsulation}'
p99
aS'\\begin{itemize}'
p100
aS'\\item'
p101
aS'\\inline'
p102
aS'\\inline'
p103
aS'\\inline'
p104
aS'\\inline'
p105
aS'\\inline'
p106
aS'\\item'
p107
aS'\\inline'
p108
aS'\\begin{lstlisting}'
p109
aS'\\end{lstlisting}'
p110
aS'\\item'
p111
aS'\\inline'
p112
aS'\\emph{encapsulation}'
p113
aS'\\end{itemize}'
p114
aS'\\end{frame}'
p115
aS'\\section'
p116
aS'\\begin{frame}'
p117
aS'\\frametitle'
p118
aS'\\begin{itemize}'
p119
aS'\\item'
p120
aS'\\inline'
p121
aS'\\inline'
p122
aS'\\item'
p123
aS'\\inline'
p124
aS'\\item'
p125
aS'\\item'
p126
aS'\\end{itemize}'
p127
aS'\\end{frame}'
p128
aS'\\begin{frame}'
p129
aS'\\frametitle'
p130
aS'\\begin{lstlisting}'
p131
aS'\\end{lstlisting}'
p132
aS'\\inline'
p133
aS'\\inline'
p134
aS'\\end{frame}'
p135
aS'\\begin{frame}'
p136
aS'\\frametitle{Builtin Namespace \\texttt{std}'
p137
aS'\\begin{itemize}'
p138
aS'\\item'
p139
aS'\\item'
p140
aS'\\begin{lstlisting}'
p141
aS'\\end{lstlisting}'
p142
aS'\\item'
p143
aS'\\emph{NEVER}'
p144
aS'\\end{itemize}'
p145
aS'\\end{frame}'
p146
aS'\\begin{frame}'
p147
aS'\\frametitle'
p148
aS'\\texttt{std}'
p149
aS'\\inline'
p150
aS'\\begin{lstlisting}'
p151
aS'\\end{lstlisting}'
p152
aS'\\end{frame}'
p153
aS'\\section'
p154
aS'\\begin{frame}'
p155
aS'\\frametitle'
p156
aS'\\inline'
p157
aS'\\lstinputlisting{auto.cc}'
p158
aS'\\end{frame}'
p159
aS'\\begin{frame}'
p160
aS'\\frametitle{\\texttt{auto}'
p161
aS'\\begin{itemize}'
p162
aS'\\item'
p163
aS'\\inline'
p164
aS'~\\inline'
p165
aS'\\begin{itemize}'
p166
aS'\\item'
p167
aS'\\inline'
p168
aS'\\item'
p169
aS'\\inline'
p170
aS'\\item'
p171
aS'\\end{itemize}'
p172
aS'\\item'
p173
aS'\\inline'
p174
aS'\\end{itemize}'
p175
aS'\\end{frame}'
p176
aS'\\begin{frame}'
p177
aS'\\frametitle{\\texttt{auto}'
p178
aS'\\inline'
p179
aS'\\lstinputlisting{auto3.cc}'
p180
aS'\\end{frame}'
p181
aS'\\begin{frame}'
p182
aS'\\frametitle{References}'
p183
aS'\\begin{itemize}'
p184
aS'\\item'
p185
aS'\\item'
p186
aS'\\item'
p187
aS'\\inline'
p188
aS'\\inline'
p189
aS'\\inline'
p190
aS'\\item'
p191
aS'\\end{itemize}'
p192
aS'\\end{frame}'
p193
aS'\\begin{frame}'
p194
aS'\\frametitle'
p195
aS'\\texttt{auto}'
p196
aS'\\begin{itemize}'
p197
aS'\\item'
p198
aS'\\inline'
p199
aS'\\inline'
p200
aS'\\end{itemize}'
p201
aS'\\begin{lstlisting}'
p202
aS'\\end{lstlisting}'
p203
aS'\\end{frame}'
p204
aS'\\section'
p205
aS'___GTEXFIXCOMMENT2___'
p206
aS'\\begin{frame}'
p207
aS'\\frametitle'
p208
aS'\\begin{itemize}'
p209
aS'___GTEXFIXCOMMENT3___'
p210
aS'\\item'
p211
aS'\\item'
p212
aS'\\end{itemize}'
p213
aS'\\vspace'
p214
aS'\\begin{multicols}{2}'
p215
aS'\\begin{lstlisting}'
p216
aS'\\end{lstlisting}'
p217
aS'\\begin{lstlisting}'
p218
aS'\\end{lstlisting}'
p219
aS'\\end{multicols}'
p220
aS'\\vskip'
p221
aS'\\begin{itemize}'
p222
aS'\\item'
p223
aS'\\end{itemize}'
p224
aS'\\end{frame}'
p225
aS'___GTEXFIXCOMMENT4___'
p226
aS'\\begin{frame}'
p227
aS'\\frametitle{Template functions}'
p228
aS'\\begin{itemize}'
p229
aS'___GTEXFIXCOMMENT5___'
p230
aS'\\item'
p231
aS'\\inline'
p232
aS'\\begin{lstlisting}'
p233
aS'\\end{lstlisting}'
p234
aS'\\item'
p235
aS'\\item'
p236
aS'\\begin{lstlisting}'
p237
aS'\\end{lstlisting}'
p238
aS'\\item'
p239
aS'\\end{itemize}'
p240
aS'\\end{frame}'
p241
aS'___GTEXFIXCOMMENT6___'
p242
aS'\\begin{frame}'
p243
aS'\\frametitle{Example: Unary Template Function}'
p244
aS'\\begin{lstlisting}'
p245
aS'\\end{lstlisting}'
p246
aS'\\end{frame}'
p247
aS'___GTEXFIXCOMMENT7___'
p248
aS'\\begin{frame}'
p249
aS'\\frametitle{Example: Binary Template Function}'
p250
aS'\\begin{lstlisting}'
p251
aS'\\end{lstlisting}'
p252
aS'\\end{frame}'
p253
aS'___GTEXFIXCOMMENT8___'
p254
aS'\\begin{frame}'
p255
aS'\\frametitle{Useful predefined template functions}'
p256
aS'\\begin{itemize}'
p257
aS'___GTEXFIXCOMMENT9___'
p258
aS'\\item'
p259
aS'\\inline'
p260
ag64
ag64
ag64
ag64
aS'\\begin{lstlisting}'
p261
aS'\\end{lstlisting}'
p262
aS'\\item'
p263
aS'\\inline'
p264
ag64
ag64
ag64
ag64
aS'\\begin{lstlisting}'
p265
aS'\\end{lstlisting}'
p266
aS'\\item'
p267
aS'\\inline'
p268
ag64
ag64
ag64
ag64
aS'\\begin{lstlisting}'
p269
aS'\\end{lstlisting}'
p270
aS'\\end{itemize}'
p271
aS'\\end{frame}'
p272
aS'___GTEXFIXCOMMENT10___'
p273
aS'\\begin{frame}'
p274
aS'\\frametitle{Class Templates, Non-type Template arguments, \\\\ default arguments}'
p275
aS'\\begin{lstlisting}'
p276
aS'\\end{lstlisting}'
p277
aS'\\begin{itemize}'
p278
aS'___GTEXFIXCOMMENT11___'
p279
aS'\\item'
p280
aS'\\item'
p281
aS'\\item'
p282
aS'\\item'
p283
aS'\\end{itemize}'
p284
aS'\\end{frame}'
p285
aS'___GTEXFIXCOMMENT12___'
p286
aS'\\begin{frame}'
p287
aS'\\frametitle{Inheritance from Class Templates}'
p288
aS'\\begin{lstlisting}'
p289
aS'\\end{lstlisting}'
p290
aS'\\begin{itemize}'
p291
aS'___GTEXFIXCOMMENT13___'
p292
aS'\\item'
p293
aS'\\item'
p294
aS'\\end{itemize}'
p295
aS'\\end{frame}'
p296
aS'___GTEXFIXCOMMENT14___'
p297
aS'\\begin{frame}'
p298
aS'\\frametitle{Using Members of a Template Base Class}'
p299
aS'\\begin{lstlisting}'
p300
aS'\\end{lstlisting}'
p301
aS'\\begin{itemize}'
p302
aS'\\item'
p303
aS'\\item'
p304
aS'\\inline'
p305
aS'\\end{itemize}'
p306
aS'\\end{frame}'
p307
aS'___GTEXFIXCOMMENT15___'
p308
aS'\\begin{frame}'
p309
aS'\\frametitle{Template Compilation}'
p310
aS'\\begin{itemize}'
p311
aS'\\item'
p312
aS'\\item'
p313
aS'\\item'
p314
aS'\\item'
p315
aS'\\end{itemize}'
p316
aS'\\end{frame}'
p317
aS'___GTEXFIXCOMMENT16___'
p318
aS'\\begin{frame}'
p319
aS'\\frametitle'
p320
aS'\\begin{itemize}'
p321
aS'\\item'
p322
aS'\\item'
p323
aS'\\item'
p324
aS'\\begin{lstlisting}'
p325
aS'\\end{lstlisting}'
p326
aS'\\end{itemize}'
p327
aS'\\end{frame}'
p328
aS'\\begin{frame}'
p329
aS'\\frametitle{Template Aliases}'
p330
aS'\\begin{lstlisting}'
p331
aS'\\end{lstlisting}'
p332
aS'\\begin{itemize}'
p333
aS'\\item'
p334
aS'\\item'
p335
aS'\\end{itemize}'
p336
aS'\\end{frame}'
p337
aS'___GTEXFIXCOMMENT17___'
p338
aS'\\begin{frame}'
p339
aS'\\frametitle{Keyword \\texttt{typename}'
p340
aS'\\begin{lstlisting}'
p341
aS'\\end{lstlisting}'
p342
aS'\\begin{itemize}'
p343
aS'___GTEXFIXCOMMENT18___'
p344
aS'\\item'
p345
aS'\\item'
p346
aS'\\inline'
p347
aS'\\item'
p348
aS'\\item'
p349
aS'\\end{itemize}'
p350
aS'\\end{frame}'
p351
aS'___GTEXFIXCOMMENT19___'
p352
aS'\\begin{frame}'
p353
aS'\\frametitle{Keyword \\texttt{.template}'
p354
aS'\\begin{lstlisting}'
p355
aS'\\end{lstlisting}'
p356
aS'\\begin{itemize}'
p357
aS'___GTEXFIXCOMMENT20___'
p358
aS'\\item'
p359
aS'\\inline'
p360
aS'\\item'
p361
aS'\\inline'
p362
aS'\\end{itemize}'
p363
aS'\\end{frame}'
p364
aS'___GTEXFIXCOMMENT21___'
p365
aS'\\section'
p366
aS'___GTEXFIXCOMMENT22___'
p367
aS'\\begin{frame}'
p368
aS'\\frametitle'
p369
aS'\\begin{itemize}'
p370
aS'___GTEXFIXCOMMENT23___'
p371
aS'\\item'
p372
aS'\\item'
p373
aS'\\item'
p374
aS'\\item'
p375
aS'\\end{itemize}'
p376
aS'\\end{frame}'
p377
aS'___GTEXFIXCOMMENT24___'
p378
aS'\\begin{frame}'
p379
aS'\\frametitle{STL-Containers}'
p380
aS'\\begin{itemize}'
p381
aS'\\item'
p382
aS'\\item'
p383
aS'\\item'
p384
aS'\\item'
p385
aS'\\item'
p386
aS'\\begin{center}'
p387
aS'\\includegraphics'
p388
aS'\\cite{josuttis99:stl}'
p389
aS'\\end{center}'
p390
aS'\\end{itemize}'
p391
aS'\\end{frame}'
p392
aS'___GTEXFIXCOMMENT25___'
p393
aS'\\begin{frame}'
p394
aS'\\frametitle{Library Example: dynamic array}'
p395
aS'\\inline'
p396
aS'\\begin{itemize}'
p397
aS'\\item'
p398
aS'\\item'
p399
aS'\\item'
p400
aS'\\item'
p401
aS'\\item'
p402
aS'\\end{itemize}'
p403
aS'\\end{frame}'
p404
aS'___GTEXFIXCOMMENT26___'
p405
aS'___GTEXFIXCOMMENT27___'
p406
aS'___GTEXFIXCOMMENT28___'
p407
aS'___GTEXFIXCOMMENT29___'
p408
aS'___GTEXFIXCOMMENT30___'
p409
aS'___GTEXFIXCOMMENT31___'
p410
aS'___GTEXFIXCOMMENT32___'
p411
aS'___GTEXFIXCOMMENT33___'
p412
aS'___GTEXFIXCOMMENT34___'
p413
aS'___GTEXFIXCOMMENT35___'
p414
aS'___GTEXFIXCOMMENT36___'
p415
aS'___GTEXFIXCOMMENT37___'
p416
aS'___GTEXFIXCOMMENT38___'
p417
aS'___GTEXFIXCOMMENT39___'
p418
aS'___GTEXFIXCOMMENT40___'
p419
aS'___GTEXFIXCOMMENT41___'
p420
aS'___GTEXFIXCOMMENT42___'
p421
aS'___GTEXFIXCOMMENT43___'
p422
aS'\\begin{frame}'
p423
aS'\\frametitle{Vector Example}'
p424
aS'\\inline'
p425
aS'\\begin{lstlisting}'
p426
aS'\\end{lstlisting}'
p427
aS'\\end{frame}'
p428
aS'\\begin{frame}'
p429
aS'\\frametitle{Iterators}'
p430
aS'\\begin{itemize}'
p431
aS'\\item'
p432
aS'\\item'
p433
aS'\\item'
p434
aS'\\inline'
p435
aS'\\item'
p436
aS'\\inline'
p437
aS'\\item'
p438
aS'\\inline'
p439
aS'\\item'
p440
aS'\\inline'
p441
aS'\\end{itemize}'
p442
aS'\\end{frame}'
p443
aS'\\begin{frame}'
p444
aS'\\frametitle'
p445
aS'\\begin{itemize}'
p446
aS'\\item'
p447
aS'\\inline'
p448
aS'\\item'
p449
aS'\\inline'
p450
aS'\\end{itemize}'
p451
aS'\\lstinputlisting{iterator.cc}'
p452
aS'\\end{frame}'
p453
aS'\\section'
p454
aS'\\begin{frame}'
p455
aS'\\frametitle'
p456
aS'\\texttt{for}'
p457
aS'\\inline'
p458
aS'\\begin{lstlisting}'
p459
aS'\\end{lstlisting}'
p460
aS'\\begin{itemize}'
p461
aS'\\item'
p462
aS'\\item'
p463
aS'\\item'
p464
aS'\\inline'
p465
aS'\\end{itemize}'
p466
aS'\\end{frame}'
p467
aS'\\begin{frame}'
p468
aS'\\frametitle'
p469
aS'\\texttt{for}'
p470
aS'\\inline'
p471
aS'\\begin{lstlisting}'
p472
aS'\\end{lstlisting}'
p473
aS'\\end{frame}'
p474
aS'\\section'
p475
aS'\\begin{frame}'
p476
aS'\\frametitle{Decltype}'
p477
aS'\\begin{itemize}'
p478
aS'\\item'
p479
aS'\\lstinline'
p480
aS'\\begin{lstlisting}'
p481
aS'\\end{lstlisting}'
p482
aS'\\item'
p483
aS'\\inline'
p484
aS'\\item'
p485
aS'\\inline'
p486
aS'\\item'
p487
aS'\\end{itemize}'
p488
aS'\\begin{lstlisting}'
p489
aS'\\end{lstlisting}'
p490
aS'\\end{frame}'
p491
aS'\\begin{frame}'
p492
aS'\\frametitle{Historic: \\lstinline!decltype! and return values in C++11}'
p493
aS'\\begin{itemize}'
p494
aS'\\item'
p495
aS'\\inline'
p496
aS'\\item'
p497
aS'\\inline'
p498
aS'\\item'
p499
aS'\\inline'
p500
aS'\\item'
p501
aS'\\inline'
p502
aS'\\inline'
p503
aS'\\inline'
p504
aS'\\end{itemize}'
p505
aS'\\begin{lstlisting}'
p506
aS'\\end{lstlisting}'
p507
aS'\\end{frame}'
p508
aS'\\section'
p509
aS'\\begin{frame}'
p510
aS'\\frametitle'
p511
aS'\\begin{itemize}'
p512
aS'\\item'
p513
aS'\\item'
p514
aS'\\begin{lstlisting}'
p515
aS'\\end{lstlisting}'
p516
aS'\\item'
p517
aS'\\begin{lstlisting}'
p518
aS'\\end{lstlisting}'
p519
aS'\\item'
p520
aS'\\inline'
p521
aS'\\end{itemize}'
p522
aS'\\end{frame}'
p523
aS'\\begin{frame}'
p524
aS'\\frametitle{Lambda functions: Syntax}'
p525
aS'\\inline'
p526
aS'\\vspace'
p527
aS'\\begin{itemize}'
p528
aS'\\item'
p529
aS'\\item'
p530
aS'\\item'
p531
aS'\\lstinline'
p532
aS'\\item'
p533
aS'\\item'
p534
aS'\\inline'
p535
aS'\\item'
p536
aS'\\inline'
p537
aS'\\inline'
p538
aS'\\item'
p539
aS'\\inline'
p540
aS'\\item'
p541
aS'\\structure{Caution:}'
p542
aS'\\end{itemize}'
p543
aS'\\end{frame}'
p544
aS'\\begin{frame}'
p545
aS'\\frametitle{Lambda functions: Capture Example}'
p546
aS'\\begin{lstlisting}'
p547
aS'\\end{lstlisting}'
p548
aS'\\end{frame}'
p549
aS'\\begin{frame}'
p550
aS'\\frametitle{Accumulation using\n    \\inline!for_each!: lambda function}'
p551
aS'\\inline'
p552
aS'\\vspace'
p553
aS'\\begin{lstlisting}'
p554
aS'\\end{lstlisting}'
p555
aS'\\end{frame}'
p556
aS'\\section'
p557
aS'\\begin{frame}'
p558
aS'\\frametitle'
p559
aS'\\end{frame}'
p560
a.