(lp0
S'%\\documentclass[ignorenonframetext,11pt]{beamer}\n\\usepackage[english]{babel}\n\\usepackage[utf8]{inputenc}\n\\usepackage{lmodern}\n\\usepackage{amsmath,amssymb,amsfonts}\n\n\n% only presentation \n\\mode<presentation>\n{\n  \\usetheme{default}\n  \\setbeamercovered{transparent}\n  \\usefonttheme{structurebold}\n  \\setbeamertemplate{theorems}[numbered]\n  \\usepackage{amscd}\n}\n\n\\usepackage{multicol}\n\\usepackage{enumerate}\n\\usepackage{color}\n\\usepackage{stmaryrd}\n\\usepackage{lmodern}\n\n\n\n\\title{DUNE PDELab Tutorial C++ Refresher}\n\\author{Olaf Ippisch}\n\\institute[]\n{\n  Institut f\xc3\xbcr Mathematik, TU Clausthal\\\\\n  Erzstr. 1, D-38678 Clausthal-Zellerfeld \\\\[6pt]\n}\n\\date[\\today]{\\today}\n\n% logo nach oben\n\\mode<presentation>\n{\n% No navigation symbols and no lower logo\n\\setbeamertemplate{sidebar right}{}\n\n% logo\n\\newsavebox{\\logobox}\n\\sbox{\\logobox}{%\n    \\hskip\\paperwidth%\n    \\rlap{%\n      % putting the logo should not change the vertical possition\n      \\vbox to 0pt{%\n        \\vskip-\\paperheight%\n        \\vskip0.35cm%\n        \\llap{\\insertlogo\\hskip0.1cm}%\n        % avoid overfull \\vbox messages\n        \\vss%\n      }%\n    }%\n}\n\n\\addtobeamertemplate{footline}{}{%\n    \\usebox{\\logobox}%\n}\n}\n\n%%%%%%%%%%%%%%%%%%%%%%%%%%%%%%%%%%%%%%%%%%%%%%%%%%%%%%%%%%%%%%%%%%%%%%%%%%%%%%%%\n%%%%%%%%%%%%%%%%%%%%%%%%%%%%%%%%%%%%%%%%%%%%%%%%%%%%%%%%%%%%%%%%%%%%%%%%%%%%%%%%\n%\n% now comes the individual stuff lecture by lecture\n%\n%%%%%%%%%%%%%%%%%%%%%%%%%%%%%%%%%%%%%%%%%%%%%%%%%%%%%%%%%%%%%%%%%%%%%%%%%%%%%%%%\n%%%%%%%%%%%%%%%%%%%%%%%%%%%%%%%%%%%%%%%%%%%%%%%%%%%%%%%%%%%%%%%%%%%%%%%%%%%%%%%%\n\n\\begin{document}'
p1
aS'\\begin{thebibliography}{Vandervoorde and Josuttis(2003)}\n\n\\bibitem[Stroustrup (2014)]{stroustrup13:cpp_programming}\nBjarne Stroustrup.\n\\newblock \\emph{Programming: Principles and Practice Using C++}.\n\\newblock Addison Wesley, 2014.\n\n\\bibitem[Stroustrup(2013)]{stroustrup13:cpp_language}\nBjarne Stroustrup.\n\\newblock \\emph{The C++ Programming Language}.\n\\newblock Addison Wesley, 2013.\n\n\\bibitem[cppreference.comm]{cppreference}\nThe cppreference community.\n\\newblock \\emph{The community C++ reference web site.}\n\\newblock \\alert<2>{\\url{http://cppreference.com}}.\n\n\\end{thebibliography}'
p2
aS'\\end{document}\n\n'
p3
a.