(lp0
S'%%%%%%%%%%%%%%%%%%%%%%%%%%%%%%%%%%%%%%%%%%%%%%%%%%%%%%%%%%%%%%%%%%%%%%%%%%%%%%%%'
p1
aS'%%%%%%%%%%%%%%%%%%%%%%%%%%%%%%%%%%%%%%%%%%%%%%%%%%%%%%%%%%%%%%%%%%%%%%%%%%%%%%%%'
p2
aS'%-----------------------------------------------------------------------------'
p3
aS'%[<+->]'
p4
aS'%-----------------------------------------------------------------------------'
p5
aS'%[<+->]'
p6
aS'%-----------------------------------------------------------------------------'
p7
aS'%-----------------------------------------------------------------------------'
p8
aS'%-----------------------------------------------------------------------------'
p9
aS'%[<+->]'
p10
aS'%-----------------------------------------------------------------------------'
p11
aS'%[<+->]'
p12
aS'%-----------------------------------------------------------------------------'
p13
aS'%[<+->]'
p14
aS'%-----------------------------------------------------------------------------'
p15
aS'%-----------------------------------------------------------------------------'
p16
aS'%-----------------------------------------------------------------------------'
p17
aS'%-----------------------------------------------------------------------------'
p18
aS'%[<+->]'
p19
aS'%-----------------------------------------------------------------------------'
p20
aS'%[<+->]'
p21
aS'%-----------------------------------------------------------------------------'
p22
aS'%-----------------------------------------------------------------------------'
p23
aS'%[<+->]'
p24
aS'%-----------------------------------------------------------------------------'
p25
aS'%-----------------------------------------------------------------------------'
p26
aS'% \\begin{frame}'
p27
aS'% \\frametitle{Vec}'
p28
aS'% Sequence Containers are ordered collections, where each element has a certain position.'
p29
aS'% \\begin{description}%[<+->]'
p30
aS'% \\item[Vector] is a dynamic array of elements.'
p31
aS'% \\begin{itemize}'
p32
aS'% \\item elements can be accessed directly with an index (random access).'
p33
aS'% \\item appending and removing at the end is fast.'
p34
aS'% \\end{itemize}'
p35
aS"% % \\item[Deque], the ``double-ended'' queue, is a dynamic array."
p36
aS'% % \\begin{itemize}'
p37
aS'% % \\item can grow in both directions.'
p38
aS'% % \\item elements can be accessed directly with an index, however, if elements are inserted at the front, the index of a certain element might change.'
p39
aS'% % \\item appending and removing elements at the end and the beginning is fast.'
p40
aS'% % \\end{itemize}'
p41
aS'% \\end{description}'
p42
aS'% \\end{frame}'
p43
aS'%-----------------------------------------------------------------------------'
p44
a.